target datalayout = "e-m:e-p270:32:32-p271:32:32-p272:64:64-i64:64-i128:128-f80:128-n8:16:32:64-S128"
target triple = "x86_64-pc-linux-gnu"

%struct._zend_array = type { %struct._zend_refcounted_h, %union.anon.5, i32, %union.anon.7, i32, i32, i32, i32, i64, ptr }
%struct._zend_refcounted_h = type { i32, %union.anon.3 }
%union.anon.3 = type { i32 }
%union.anon.5 = type { i32 }
%union.anon.7 = type { ptr }
%struct._zend_class_entry = type { i8, ptr, %union.anon.4, i32, i32, i32, i32, ptr, ptr, ptr, %struct._zend_array, %struct._zend_array, %struct._zend_array, ptr, ptr, ptr, ptr, ptr, ptr, ptr, ptr, ptr, ptr, ptr, ptr, ptr, ptr, ptr, ptr, ptr, ptr, ptr, %union.anon.8, ptr, ptr, ptr, ptr, i32, i32, i32, i32, %union.anon.9, ptr, ptr, ptr, ptr, i32, ptr, ptr, %union.anon.10 }
%union.anon.4 = type { ptr }
%union.anon.8 = type { ptr }
%union.anon.9 = type { ptr }
%union.anon.10 = type { %struct.anon.11 }
%struct.anon.11 = type { ptr, i32, i32 }

; Function Attrs: nounwind uwtable
define dso_local zeroext i1 @zend_class_implements_interface(ptr noundef %0, ptr noundef %1) #0 {
  %3 = alloca i1, align 1
  %4 = alloca ptr, align 8
  %5 = alloca ptr, align 8
  %6 = alloca i32, align 4
  %7 = alloca i32, align 4
  store ptr %0, ptr %4, align 8, !tbaa !89
  store ptr %1, ptr %5, align 8, !tbaa !89
  call void @llvm.lifetime.start.p0(i64 4, ptr %6) #20
  %8 = load ptr, ptr %5, align 8, !tbaa !89
  %9 = getelementptr inbounds nuw %struct._zend_class_entry, ptr %8, i32 0, i32 4
  %10 = load i32, ptr %9, align 4, !tbaa !117
  %11 = and i32 %10, 1
  %12 = icmp ne i32 %11, 0
  call void @llvm.assume(i1 %12)
  %13 = load ptr, ptr %4, align 8, !tbaa !89
  %14 = getelementptr inbounds nuw %struct._zend_class_entry, ptr %13, i32 0, i32 37
  %15 = load i32, ptr %14, align 8, !tbaa !118
  %16 = icmp ne i32 %15, 0
  br i1 %16, label %17, label %45

17:                                               ; preds = %2
  %18 = load ptr, ptr %4, align 8, !tbaa !89
  %19 = getelementptr inbounds nuw %struct._zend_class_entry, ptr %18, i32 0, i32 4
  %20 = load i32, ptr %19, align 4, !tbaa !117
  %21 = and i32 %20, 262144
  %22 = icmp ne i32 %21, 0
  call void @llvm.assume(i1 %22)
  store i32 0, ptr %6, align 4, !tbaa !44
  br label %23

23:                                               ; preds = %41, %17
  %24 = load i32, ptr %6, align 4, !tbaa !44
  %25 = load ptr, ptr %4, align 8, !tbaa !89
  %26 = getelementptr inbounds nuw %struct._zend_class_entry, ptr %25, i32 0, i32 37
  %27 = load i32, ptr %26, align 8, !tbaa !118
  %28 = icmp ult i32 %24, %27
  br i1 %28, label %29, label %44

29:                                               ; preds = %23
  %30 = load ptr, ptr %4, align 8, !tbaa !89
  %31 = getelementptr inbounds nuw %struct._zend_class_entry, ptr %30, i32 0, i32 41
  %32 = load ptr, ptr %31, align 8, !tbaa !11
  %33 = load i32, ptr %6, align 4, !tbaa !44
  %34 = zext i32 %33 to i64
  %35 = getelementptr inbounds nuw ptr, ptr %32, i64 %34
  %36 = load ptr, ptr %35, align 8, !tbaa !89
  %37 = load ptr, ptr %5, align 8, !tbaa !89
  %38 = icmp eq ptr %36, %37
  br i1 %38, label %39, label %40

39:                                               ; preds = %29
  store i1 true, ptr %3, align 1
  store i32 1, ptr %7, align 4
  br label %46

40:                                               ; preds = %29
  br label %41

41:                                               ; preds = %40
  %42 = load i32, ptr %6, align 4, !tbaa !44
  %43 = add i32 %42, 1
  store i32 %43, ptr %6, align 4, !tbaa !44
  br label %23

44:                                               ; preds = %23
  br label %45

45:                                               ; preds = %44, %2
  store i1 false, ptr %3, align 1
  store i32 1, ptr %7, align 4
  br label %46

46:                                               ; preds = %45, %39
  call void @llvm.lifetime.end.p0(i64 4, ptr %6) #20
  %47 = load i1, ptr %3, align 1
  ret i1 %47
}