; Function Attrs: nofree norecurse nosync nounwind memory(read, inaccessiblemem: write) uwtable
define dso_local noundef zeroext i1 @zend_class_implements_interface(ptr noundef readonly captures(none) %0, ptr noundef readonly captures(address) %1) local_unnamed_addr #12 {
  %3 = getelementptr inbounds nuw i8, ptr %1, i64 28
  %4 = load i32, ptr %3, align 4, !tbaa !124
  %5 = and i32 %4, 1
  %6 = icmp ne i32 %5, 0
  tail call void @llvm.assume(i1 %6)
  %7 = getelementptr inbounds nuw i8, ptr %0, i64 424
  %8 = load i32, ptr %7, align 8, !tbaa !125
  %.not = icmp eq i32 %8, 0
  br i1 %.not, label %.loopexit, label %9

9:                                                ; preds = %2
  %10 = getelementptr inbounds nuw i8, ptr %0, i64 28
  %11 = load i32, ptr %10, align 4, !tbaa !124
  %12 = and i32 %11, 262144
  %13 = icmp ne i32 %12, 0
  tail call void @llvm.assume(i1 %13)
  %14 = getelementptr inbounds nuw i8, ptr %0, i64 440
  %15 = load ptr, ptr %14, align 8, !tbaa !4
  %wide.trip.count = zext i32 %8 to i64
  br label %16

16:                                               ; preds = %16, %9
  %indvars.iv = phi i64 [ 0, %9 ], [ %indvars.iv.next, %16 ]
  %17 = getelementptr inbounds nuw ptr, ptr %15, i64 %indvars.iv
  %18 = load ptr, ptr %17, align 8, !tbaa !80
  %19 = icmp eq ptr %18, %1
  %indvars.iv.next = add nuw nsw i64 %indvars.iv, 1
  %exitcond.not = icmp eq i64 %indvars.iv.next, %wide.trip.count
  %or.cond = select i1 %19, i1 true, i1 %exitcond.not
  br i1 %or.cond, label %.loopexit, label %16

.loopexit:                                        ; preds = %16, %2
  %.09 = phi i1 [ false, %2 ], [ %19, %16 ]
  ret i1 %.09
}